target datalayout = "e-m:e-p270:32:32-p271:32:32-p272:64:64-i64:64-i128:128-f80:128-n8:16:32:64-S128"
target triple = "x86_64-pc-linux-gnu"

@systemCaDirs = internal global [3 x ptr] [ptr @.str.4, ptr @.str.5, ptr @.str.6], align 16

; Function Attrs: nounwind uwtable
define ptr @wolfSSL_get_system_CA_dirs(ptr noundef %0) #0 {
  %2 = alloca ptr, align 8
  %3 = alloca ptr, align 8
  store ptr %0, ptr %2, align 8, !tbaa !92
  call void @llvm.lifetime.start.p0(i64 8, ptr %3) #9
  %4 = load ptr, ptr %2, align 8, !tbaa !92
  %5 = icmp eq ptr %4, null
  br i1 %5, label %6, label %7

6:                                                ; preds = %1
  store ptr null, ptr %3, align 8, !tbaa !235
  br label %9

7:                                                ; preds = %1
  store ptr @systemCaDirs, ptr %3, align 8, !tbaa !235
  %8 = load ptr, ptr %2, align 8, !tbaa !92
  store i32 3, ptr %8, align 4, !tbaa !7
  br label %9

9:                                                ; preds = %7, %6
  %10 = load ptr, ptr %3, align 8, !tbaa !235
  call void @llvm.lifetime.end.p0(i64 8, ptr %3) #9
  ret ptr %10
}