; Function Attrs: mustprogress nofree norecurse nosync nounwind willreturn memory(argmem: write) uwtable
define noundef ptr @wolfSSL_get_system_CA_dirs(ptr noundef writeonly captures(address_is_null) %0) local_unnamed_addr #5 {
  %2 = icmp eq ptr %0, null
  br i1 %2, label %4, label %3

3:                                                ; preds = %1
  store i32 3, ptr %0, align 4, !tbaa !3
  br label %4

4:                                                ; preds = %1, %3
  %.0 = phi ptr [ @systemCaDirs, %3 ], [ null, %1 ]
  ret ptr %.0
}